target datalayout = "e-m:e-p270:32:32-p271:32:32-p272:64:64-i64:64-i128:128-f80:128-n8:16:32:64-S128"
target triple = "x86_64-pc-linux-gnu"

%struct.H5T_conv_func_t = type { i8, %union.anon.14 }
%union.anon.14 = type { ptr }
%struct.H5T_conv_ctx_t = type { %union.anon.6 }
%union.anon.6 = type { %struct.H5T_conv_ctx_conv_fields }
%struct.H5T_conv_ctx_conv_fields = type { %struct.H5T_conv_cb_t, i64, i64, i64, i8 }
%struct.H5T_conv_cb_t = type { ptr, ptr }
%struct.H5T_path_t = type { [32 x i8], ptr, ptr, %struct.H5T_conv_func_t, i8, i8, %struct.H5T_cdata_t }
%struct.H5T_cdata_t = type { i32, i32, i8, ptr }

@.str.2 = private unnamed_addr constant [97 x i8] c"generated/home/dtcxzyw/WorkSpace/Projects/compilers/llvm-opt-benchmark/bench/hdf5/hdf5/src/H5T.c\00", align 1
@H5E_DATATYPE_g = external global i64, align 8
@H5E_CANTCONVERT_g = external global i64, align 8
@.str.321 = private unnamed_addr constant [27 x i8] c"datatype conversion failed\00", align 1
@__func__.H5T_convert_with_ctx = private unnamed_addr constant [21 x i8] c"H5T_convert_with_ctx\00", align 1

; Function Attrs: nounwind uwtable
define i32 @H5T_convert_with_ctx(ptr noundef %0, ptr noundef %1, ptr noundef %2, ptr noundef %3, i64 noundef %4, i64 noundef %5, i64 noundef %6, ptr noundef %7, ptr noundef %8) #0 {
  %10 = alloca ptr, align 8
  %11 = alloca ptr, align 8
  %12 = alloca ptr, align 8
  %13 = alloca ptr, align 8
  %14 = alloca i64, align 8
  %15 = alloca i64, align 8
  %16 = alloca i64, align 8
  %17 = alloca ptr, align 8
  %18 = alloca ptr, align 8
  %19 = alloca i32, align 4
  %20 = alloca i8, align 1
  store ptr %0, ptr %10, align 8
  store ptr %1, ptr %11, align 8
  store ptr %2, ptr %12, align 8
  store ptr %3, ptr %13, align 8
  store i64 %4, ptr %14, align 8
  store i64 %5, ptr %15, align 8
  store i64 %6, ptr %16, align 8
  store ptr %7, ptr %17, align 8
  store ptr %8, ptr %18, align 8
  store i32 0, ptr %19, align 4
  store i8 0, ptr %20, align 1
  %21 = load ptr, ptr %10, align 8
  %22 = getelementptr inbounds %struct.H5T_path_t, ptr %21, i32 0, i32 6
  %23 = getelementptr inbounds %struct.H5T_cdata_t, ptr %22, i32 0, i32 0
  store i32 1, ptr %23, align 8
  %24 = load ptr, ptr %10, align 8
  %25 = getelementptr inbounds %struct.H5T_path_t, ptr %24, i32 0, i32 3
  %26 = getelementptr inbounds %struct.H5T_conv_func_t, ptr %25, i32 0, i32 0
  %27 = load i8, ptr %26, align 8
  %28 = trunc i8 %27 to i1
  br i1 %28, label %29, label %71

29:                                               ; preds = %9
  %30 = load ptr, ptr %10, align 8
  %31 = getelementptr inbounds %struct.H5T_path_t, ptr %30, i32 0, i32 3
  %32 = getelementptr inbounds %struct.H5T_conv_func_t, ptr %31, i32 0, i32 1
  %33 = load ptr, ptr %32, align 8
  %34 = load ptr, ptr %13, align 8
  %35 = getelementptr inbounds %struct.H5T_conv_ctx_t, ptr %34, i32 0, i32 0
  %36 = getelementptr inbounds %struct.H5T_conv_ctx_conv_fields, ptr %35, i32 0, i32 2
  %37 = load i64, ptr %36, align 8
  %38 = load ptr, ptr %13, align 8
  %39 = getelementptr inbounds %struct.H5T_conv_ctx_t, ptr %38, i32 0, i32 0
  %40 = getelementptr inbounds %struct.H5T_conv_ctx_conv_fields, ptr %39, i32 0, i32 3
  %41 = load i64, ptr %40, align 8
  %42 = load ptr, ptr %10, align 8
  %43 = getelementptr inbounds %struct.H5T_path_t, ptr %42, i32 0, i32 6
  %44 = load i64, ptr %14, align 8
  %45 = load i64, ptr %15, align 8
  %46 = load i64, ptr %16, align 8
  %47 = load ptr, ptr %17, align 8
  %48 = load ptr, ptr %18, align 8
  %49 = load ptr, ptr %13, align 8
  %50 = getelementptr inbounds %struct.H5T_conv_ctx_t, ptr %49, i32 0, i32 0
  %51 = getelementptr inbounds %struct.H5T_conv_ctx_conv_fields, ptr %50, i32 0, i32 1
  %52 = load i64, ptr %51, align 8
  %53 = call i32 %33(i64 noundef %37, i64 noundef %41, ptr noundef %43, i64 noundef %44, i64 noundef %45, i64 noundef %46, ptr noundef %47, ptr noundef %48, i64 noundef %52)
  %54 = icmp slt i32 %53, 0
  br i1 %54, label %55, label %70

55:                                               ; preds = %29
  br label %56

56:                                               ; preds = %55
  br label %57

57:                                               ; preds = %56
  br label %58

58:                                               ; preds = %57
  %59 = load i64, ptr @H5E_DATATYPE_g, align 8
  %60 = load i64, ptr @H5E_CANTCONVERT_g, align 8
  %61 = call i32 (ptr, ptr, i32, i64, i64, ptr, ...) @H5E_printf_stack(ptr noundef @.str.2, ptr noundef @__func__.H5T_convert_with_ctx, i32 noundef 5925, i64 noundef %59, i64 noundef %60, ptr noundef @.str.321)
  br label %62

62:                                               ; preds = %58
  store i8 1, ptr %20, align 1
  %63 = load i8, ptr %20, align 1
  %64 = trunc i8 %63 to i1
  %65 = zext i1 %64 to i8
  store i8 %65, ptr %20, align 1
  br label %66

66:                                               ; preds = %62
  br label %67

67:                                               ; preds = %66
  store i32 -1, ptr %19, align 4
  br label %105

68:                                               ; No predecessors!
  br label %69

69:                                               ; preds = %68
  br label %70

70:                                               ; preds = %69, %29
  br label %104

71:                                               ; preds = %9
  %72 = load ptr, ptr %10, align 8
  %73 = getelementptr inbounds %struct.H5T_path_t, ptr %72, i32 0, i32 3
  %74 = getelementptr inbounds %struct.H5T_conv_func_t, ptr %73, i32 0, i32 1
  %75 = load ptr, ptr %74, align 8
  %76 = load ptr, ptr %11, align 8
  %77 = load ptr, ptr %12, align 8
  %78 = load ptr, ptr %10, align 8
  %79 = getelementptr inbounds %struct.H5T_path_t, ptr %78, i32 0, i32 6
  %80 = load ptr, ptr %13, align 8
  %81 = load i64, ptr %14, align 8
  %82 = load i64, ptr %15, align 8
  %83 = load i64, ptr %16, align 8
  %84 = load ptr, ptr %17, align 8
  %85 = load ptr, ptr %18, align 8
  %86 = call i32 %75(ptr noundef %76, ptr noundef %77, ptr noundef %79, ptr noundef %80, i64 noundef %81, i64 noundef %82, i64 noundef %83, ptr noundef %84, ptr noundef %85)
  %87 = icmp slt i32 %86, 0
  br i1 %87, label %88, label %103

88:                                               ; preds = %71
  br label %89

89:                                               ; preds = %88
  br label %90

90:                                               ; preds = %89
  br label %91

91:                                               ; preds = %90
  %92 = load i64, ptr @H5E_DATATYPE_g, align 8
  %93 = load i64, ptr @H5E_CANTCONVERT_g, align 8
  %94 = call i32 (ptr, ptr, i32, i64, i64, ptr, ...) @H5E_printf_stack(ptr noundef @.str.2, ptr noundef @__func__.H5T_convert_with_ctx, i32 noundef 5929, i64 noundef %92, i64 noundef %93, ptr noundef @.str.321)
  br label %95

95:                                               ; preds = %91
  store i8 1, ptr %20, align 1
  %96 = load i8, ptr %20, align 1
  %97 = trunc i8 %96 to i1
  %98 = zext i1 %97 to i8
  store i8 %98, ptr %20, align 1
  br label %99

99:                                               ; preds = %95
  br label %100

100:                                              ; preds = %99
  store i32 -1, ptr %19, align 4
  br label %105

101:                                              ; No predecessors!
  br label %102

102:                                              ; preds = %101
  br label %103

103:                                              ; preds = %102, %71
  br label %104

104:                                              ; preds = %103, %70
  br label %105

105:                                              ; preds = %104, %100, %67
  %106 = load i32, ptr %19, align 4
  ret i32 %106
}