; Function Attrs: nounwind uwtable
define range(i32 -1, 1) i32 @H5T_convert_with_ctx(ptr noundef %0, ptr noundef %1, ptr noundef %2, ptr noundef %3, i64 noundef %4, i64 noundef %5, i64 noundef %6, ptr noundef %7, ptr noundef %8) local_unnamed_addr #0 {
  %10 = getelementptr inbounds i8, ptr %0, i64 72
  store i32 1, ptr %10, align 8
  %11 = getelementptr inbounds i8, ptr %0, i64 48
  %12 = load i8, ptr %11, align 8
  %13 = trunc i8 %12 to i1
  %14 = getelementptr inbounds i8, ptr %0, i64 56
  %15 = load ptr, ptr %14, align 8
  br i1 %13, label %16, label %25

16:                                               ; preds = %9
  %17 = getelementptr inbounds i8, ptr %3, i64 24
  %18 = load i64, ptr %17, align 8
  %19 = getelementptr inbounds i8, ptr %3, i64 32
  %20 = load i64, ptr %19, align 8
  %21 = getelementptr inbounds i8, ptr %3, i64 16
  %22 = load i64, ptr %21, align 8
  %23 = tail call i32 %15(i64 noundef %18, i64 noundef %20, ptr noundef nonnull %10, i64 noundef %4, i64 noundef %5, i64 noundef %6, ptr noundef %7, ptr noundef %8, i64 noundef %22) #17
  %24 = icmp slt i32 %23, 0
  br i1 %24, label %.sink.split, label %31

25:                                               ; preds = %9
  %26 = tail call i32 %15(ptr noundef %1, ptr noundef %2, ptr noundef nonnull %10, ptr noundef %3, i64 noundef %4, i64 noundef %5, i64 noundef %6, ptr noundef %7, ptr noundef %8) #17
  %27 = icmp slt i32 %26, 0
  br i1 %27, label %.sink.split, label %31

.sink.split:                                      ; preds = %25, %16
  %.sink = phi i32 [ 5925, %16 ], [ 5929, %25 ]
  %28 = load i64, ptr @H5E_DATATYPE_g, align 8
  %29 = load i64, ptr @H5E_CANTCONVERT_g, align 8
  %30 = tail call i32 (ptr, ptr, i32, i64, i64, ptr, ...) @H5E_printf_stack(ptr noundef nonnull @.str.2, ptr noundef nonnull @__func__.H5T_convert_with_ctx, i32 noundef %.sink, i64 noundef %28, i64 noundef %29, ptr noundef nonnull @.str.321) #17
  br label %31

31:                                               ; preds = %.sink.split, %16, %25
  %.0 = phi i32 [ 0, %16 ], [ 0, %25 ], [ -1, %.sink.split ]
  ret i32 %.0
}